; Function Attrs: mustprogress uwtable
define internal void @_ZNSt17_Function_handlerIFvN3gmx35MDModulesCheckpointReadingBroadcastEEZNS0_12_GLOBAL__N_114DensityFitting39subscribeToSimulationSetupNotificationsEPNS0_18MDModulesNotifiersEEUlS1_E_E9_M_invokeERKSt9_Any_dataOS1_(ptr noundef nonnull readonly align 8 captures(none) dereferenceable(16) %0, ptr noundef nonnull readonly align 8 captures(none) dereferenceable(16) %1) #0 align 2 {
  %.val = load ptr, ptr %0, align 8, !tbaa !367
  %.val2 = load ptr, ptr %1, align 8, !tbaa !369
  %3 = getelementptr inbounds nuw i8, ptr %1, i64 8
  %.val3 = load i8, ptr %3, align 8, !tbaa !371
  %4 = getelementptr inbounds nuw i8, ptr %.val, i64 720
  %5 = trunc i8 %.val3 to i1
  tail call void @_ZN3gmx32DensityFittingForceProviderState14broadcastStateEP10tmpi_comm_b(ptr noundef nonnull align 8 dereferenceable(24) %4, ptr noundef %.val2, i1 noundef zeroext %5)
  ret void
}